target datalayout = "e-m:e-p270:32:32-p271:32:32-p272:64:64-i64:64-i128:128-f80:128-n8:16:32:64-S128"
target triple = "x86_64-pc-linux-gnu"

%class.MallocMemorySnapshot = type { [28 x %class.MallocMemory], %class.MemoryCounter }
%class.MallocMemory = type { %class.MemoryCounter, %class.MemoryCounter }
%class.MemoryCounter = type { i64, i64, i64, i64 }
%class.VirtualMemory = type { i64, i64, i64 }
%"class.MemoryFileTracker::Instance::Locker" = type { i8 }
%class.MetaspaceCombinedStats = type { %class.MetaspaceStats, %class.MetaspaceStats, %class.MetaspaceStats }
%class.MetaspaceStats = type { i64, i64, i64 }
%class.MemBaseline = type <{ %class.MallocMemorySnapshot, %class.VirtualMemorySnapshot, %class.MetaspaceCombinedStats, i64, i64, i64, %class.LinkedListImpl, %class.LinkedListImpl.0, %class.LinkedListImpl.2, i32, i32, i32, [4 x i8] }>
%class.VirtualMemorySnapshot = type { [28 x %class.VirtualMemory] }
%class.LinkedListImpl = type { %class.LinkedList, ptr }
%class.LinkedList = type { ptr, ptr }
%class.LinkedListImpl.0 = type { %class.LinkedList.1, ptr }
%class.LinkedList.1 = type { ptr, ptr }
%class.LinkedListImpl.2 = type { %class.LinkedList.3, ptr }
%class.LinkedList.3 = type { ptr, ptr }

@_ZN19MallocMemorySummary9_snapshotE = external global %class.MallocMemorySnapshot, align 8

; Function Attrs: mustprogress nounwind uwtable
define linkonce_odr hidden noundef ptr @_ZN19MallocMemorySummary11as_snapshotEv() #1 comdat align 2 {
  ret ptr @_ZN19MallocMemorySummary9_snapshotE
}

; Function Attrs: mustprogress nounwind uwtable
define linkonce_odr hidden void @_ZN19MallocMemorySummary8snapshotEP20MallocMemorySnapshot(ptr noundef %0) #1 comdat align 2 {
  %2 = alloca ptr, align 8
  store ptr %0, ptr %2, align 8
  %3 = call noundef ptr @_ZN19MallocMemorySummary11as_snapshotEv()
  %4 = load ptr, ptr %2, align 8
  call void @_ZN20MallocMemorySnapshot7copy_toEPS_(ptr noundef nonnull align 8 dereferenceable(1824) %3, ptr noundef %4)
  %5 = load ptr, ptr %2, align 8
  call void @_ZN20MallocMemorySnapshot15make_adjustmentEv(ptr noundef nonnull align 8 dereferenceable(1824) %5)
  ret void
}

; Function Attrs: mustprogress nounwind uwtable
define hidden void @_ZN11MemBaseline16baseline_summaryEv(ptr noundef nonnull align 8 dereferenceable(2676) %0) #1 align 2 {
  %2 = alloca ptr, align 8
  %3 = alloca %"class.MemoryFileTracker::Instance::Locker", align 1
  %4 = alloca %class.MetaspaceCombinedStats, align 8
  store ptr %0, ptr %2, align 8
  %5 = load ptr, ptr %2, align 8
  %6 = getelementptr inbounds %class.MemBaseline, ptr %5, i32 0, i32 0
  call void @_ZN19MallocMemorySummary8snapshotEP20MallocMemorySnapshot(ptr noundef %6)
  %7 = getelementptr inbounds %class.MemBaseline, ptr %5, i32 0, i32 1
  call void @_ZN20VirtualMemorySummary8snapshotEP21VirtualMemorySnapshot(ptr noundef %7)
  call void @_ZN17MemoryFileTracker8Instance6LockerC1Ev(ptr noundef nonnull align 1 dereferenceable(1) %3)
  %8 = getelementptr inbounds %class.MemBaseline, ptr %5, i32 0, i32 1
  call void @_ZN17MemoryFileTracker8Instance16summary_snapshotEP21VirtualMemorySnapshot(ptr noundef %8)
  call void @_ZN17MemoryFileTracker8Instance6LockerD1Ev(ptr noundef nonnull align 1 dereferenceable(1) %3) #10
  call void @_ZN14MetaspaceUtils23get_combined_statisticsEv(ptr dead_on_unwind writable sret(%class.MetaspaceCombinedStats) align 8 %4)
  %9 = getelementptr inbounds %class.MemBaseline, ptr %5, i32 0, i32 2
  call void @llvm.memcpy.p0.p0.i64(ptr align 8 %9, ptr align 8 %4, i64 72, i1 false)
  ret void
}