; Function Attrs: mustprogress nounwind uwtable
define hidden void @_ZN11MemBaseline16baseline_summaryEv(ptr noundef nonnull align 8 dereferenceable(2676) %0) local_unnamed_addr #3 align 2 {
  %2 = alloca %"class.MemoryFileTracker::Instance::Locker", align 1
  %3 = alloca %class.MetaspaceCombinedStats, align 8
  tail call void @_ZN20MallocMemorySnapshot7copy_toEPS_(ptr noundef nonnull align 8 dereferenceable(1824) @_ZN19MallocMemorySummary9_snapshotE, ptr noundef nonnull %0) #14
  tail call void @_ZN20MallocMemorySnapshot15make_adjustmentEv(ptr noundef nonnull align 8 dereferenceable(1824) %0) #14
  %4 = getelementptr inbounds i8, ptr %0, i64 1824
  tail call void @_ZN20VirtualMemorySummary8snapshotEP21VirtualMemorySnapshot(ptr noundef nonnull %4) #14
  call void @_ZN17MemoryFileTracker8Instance6LockerC1Ev(ptr noundef nonnull align 1 dereferenceable(1) %2) #14
  call void @_ZN17MemoryFileTracker8Instance16summary_snapshotEP21VirtualMemorySnapshot(ptr noundef nonnull %4) #14
  call void @_ZN17MemoryFileTracker8Instance6LockerD1Ev(ptr noundef nonnull align 1 dereferenceable(1) %2) #14
  call void @_ZN14MetaspaceUtils23get_combined_statisticsEv(ptr dead_on_unwind nonnull writable sret(%class.MetaspaceCombinedStats) align 8 %3) #14
  %5 = getelementptr inbounds i8, ptr %0, i64 2496
  call void @llvm.memcpy.p0.p0.i64(ptr noundef nonnull align 8 dereferenceable(72) %5, ptr noundef nonnull align 8 dereferenceable(72) %3, i64 72, i1 false)
  ret void
}